Certificate:
    Data:
        Version: 3 (0x2)
        Serial Number: 268435458 (0x10000002)
        Signature Algorithm: ecdsa-with-SHA256
        Issuer: C=CN, ST=GD, L=GZ, O=GDUT, OU=STUDENT, CN=ZJH/emailAddress=1017328759@qq.com
        Validity
            Not Before: Dec 24 10:15:36 2022 GMT
            Not After : Dec 24 10:15:36 2023 GMT
        Subject: C=CN, ST=GD, O=GDUT, OU=zjh, CN=zjh/emailAddress=1017328759@qq.com
        Subject Public Key Info:
            Public Key Algorithm: id-ecPublicKey
                Public-Key: (256 bit)
                pub:
                    04:34:7a:32:93:21:8a:58:75:fd:92:83:40:87:f5:
                    1f:56:a2:1c:c5:35:cc:ab:30:73:6e:77:04:1d:c2:
                    65:bc:15:5e:75:c4:18:44:d9:df:5a:15:46:70:25:
                    3b:35:b1:d2:48:8e:bd:74:bd:03:b4:18:c9:37:2b:
                    6c:20:53:13:c8
                ASN1 OID: prime256v1
                NIST CURVE: P-256
        X509v3 extensions:
            X509v3 Basic Constraints: 
                CA:FALSE
            Netscape Comment: 
                OpenSSL Generated Certificate
            X509v3 Subject Key Identifier: 
                CE:66:FE:D6:B3:61:94:C2:51:74:24:30:BF:37:27:E5:5A:3F:72:BC
            X509v3 Authority Key Identifier: 
                keyid:9F:6B:B1:C8:89:24:EC:2A:A4:63:4A:A0:E2:59:FB:AF:1B:6E:9C:3D

    Signature Algorithm: ecdsa-with-SHA256
         30:45:02:20:1a:a5:4f:5f:60:60:67:87:3c:a8:e7:43:54:8e:
         5d:ac:77:01:7c:54:93:64:7e:cc:56:c8:9a:e4:3a:26:f8:d5:
         02:21:00:ca:c3:b5:a6:93:c0:0f:33:72:b3:a6:72:88:a3:75:
         6e:ee:3f:86:d8:6a:3e:fc:a8:a2:cb:a7:32:79:78:96:ac
-----BEGIN CERTIFICATE-----
MIICTDCCAfKgAwIBAgIEEAAAAjAKBggqhkjOPQQDAjB4MQswCQYDVQQGEwJDTjEL
MAkGA1UECAwCR0QxCzAJBgNVBAcMAkdaMQ0wCwYDVQQKDARHRFVUMRAwDgYDVQQL
DAdTVFVERU5UMQwwCgYDVQQDDANaSkgxIDAeBgkqhkiG9w0BCQEWETEwMTczMjg3
NTlAcXEuY29tMB4XDTIyMTIyNDEwMTUzNloXDTIzMTIyNDEwMTUzNlowZzELMAkG
A1UEBhMCQ04xCzAJBgNVBAgMAkdEMQ0wCwYDVQQKDARHRFVUMQwwCgYDVQQLDAN6
amgxDDAKBgNVBAMMA3pqaDEgMB4GCSqGSIb3DQEJARYRMTAxNzMyODc1OUBxcS5j
b20wWTATBgcqhkjOPQIBBggqhkjOPQMBBwNCAAQ0ejKTIYpYdf2Sg0CH9R9WohzF
NcyrMHNudwQdwmW8FV51xBhE2d9aFUZwJTs1sdJIjr10vQO0GMk3K2wgUxPIo3sw
eTAJBgNVHRMEAjAAMCwGCWCGSAGG+EIBDQQfFh1PcGVuU1NMIEdlbmVyYXRlZCBD
ZXJ0aWZpY2F0ZTAdBgNVHQ4EFgQUzmb+1rNhlMJRdCQwvzcn5Vo/crwwHwYDVR0j
BBgwFoAUn2uxyIkk7CqkY0qg4ln7rxtunD0wCgYIKoZIzj0EAwIDSAAwRQIgGqVP
X2BgZ4c8qOdDVI5drHcBfFSTZH7MVsia5Dom+NUCIQDKw7Wmk8APM3KzpnKIo3Vu
7j+G2Go+/Kiiy6cyeXiWrA==
-----END CERTIFICATE-----
